target datalayout = "e-m:e-p270:32:32-p271:32:32-p272:64:64-i64:64-i128:128-f80:128-n8:16:32:64-S128"
target triple = "x86_64-pc-linux-gnu"

@libctx = internal global ptr null, align 8
@.str.3 = private unnamed_addr constant [38 x i8] c"../openssl/test/evp_pkey_dhkem_test.c\00", align 1
@.str.5 = private unnamed_addr constant [3 x i8] c"EC\00", align 1
@.str.65 = private unnamed_addr constant [37 x i8] c"EVP_PKEY_encapsulate_init(ctx, NULL)\00", align 1
@.str.72 = private unnamed_addr constant [37 x i8] c"EVP_PKEY_decapsulate_init(ctx, NULL)\00", align 1
@.str.76 = private unnamed_addr constant [3 x i8] c"-2\00", align 1
@.str.139 = private unnamed_addr constant [51 x i8] c"key = EVP_PKEY_Q_keygen(libctx, NULL, \22EC\22, curve)\00", align 1
@.str.140 = private unnamed_addr constant [52 x i8] c"ctx = EVP_PKEY_CTX_new_from_pkey(libctx, key, NULL)\00", align 1

; Function Attrs: nounwind uwtable
define internal i32 @do_ec_curve_failtest(ptr noundef %0) #0 {
  %2 = alloca ptr, align 8
  %3 = alloca i32, align 4
  %4 = alloca ptr, align 8
  %5 = alloca ptr, align 8
  store ptr %0, ptr %2, align 8, !tbaa !4
  call void @llvm.lifetime.start.p0(i64 4, ptr %3) #6
  call void @llvm.lifetime.start.p0(i64 8, ptr %4) #6
  store ptr null, ptr %4, align 8, !tbaa !17
  call void @llvm.lifetime.start.p0(i64 8, ptr %5) #6
  store ptr null, ptr %5, align 8, !tbaa !19
  %6 = load ptr, ptr @libctx, align 8, !tbaa !15
  %7 = load ptr, ptr %2, align 8, !tbaa !4
  %8 = call ptr (ptr, ptr, ptr, ...) @EVP_PKEY_Q_keygen(ptr noundef %6, ptr noundef null, ptr noundef @.str.5, ptr noundef %7)
  store ptr %8, ptr %4, align 8, !tbaa !17
  %9 = call i32 @test_ptr(ptr noundef @.str.3, i32 noundef 578, ptr noundef @.str.139, ptr noundef %8)
  %10 = icmp ne i32 %9, 0
  br i1 %10, label %11, label %27

11:                                               ; preds = %1
  %12 = load ptr, ptr @libctx, align 8, !tbaa !15
  %13 = load ptr, ptr %4, align 8, !tbaa !17
  %14 = call ptr @EVP_PKEY_CTX_new_from_pkey(ptr noundef %12, ptr noundef %13, ptr noundef null)
  store ptr %14, ptr %5, align 8, !tbaa !19
  %15 = call i32 @test_ptr(ptr noundef @.str.3, i32 noundef 579, ptr noundef @.str.140, ptr noundef %14)
  %16 = icmp ne i32 %15, 0
  br i1 %16, label %17, label %27

17:                                               ; preds = %11
  %18 = load ptr, ptr %5, align 8, !tbaa !19
  %19 = call i32 @EVP_PKEY_encapsulate_init(ptr noundef %18, ptr noundef null)
  %20 = call i32 @test_int_eq(ptr noundef @.str.3, i32 noundef 580, ptr noundef @.str.65, ptr noundef @.str.76, i32 noundef %19, i32 noundef -2)
  %21 = icmp ne i32 %20, 0
  br i1 %21, label %22, label %27

22:                                               ; preds = %17
  %23 = load ptr, ptr %5, align 8, !tbaa !19
  %24 = call i32 @EVP_PKEY_decapsulate_init(ptr noundef %23, ptr noundef null)
  %25 = call i32 @test_int_eq(ptr noundef @.str.3, i32 noundef 581, ptr noundef @.str.72, ptr noundef @.str.76, i32 noundef %24, i32 noundef -2)
  %26 = icmp ne i32 %25, 0
  br label %27

27:                                               ; preds = %22, %17, %11, %1
  %28 = phi i1 [ false, %17 ], [ false, %11 ], [ false, %1 ], [ %26, %22 ]
  %29 = zext i1 %28 to i32
  store i32 %29, ptr %3, align 4, !tbaa !10
  %30 = load ptr, ptr %4, align 8, !tbaa !17
  call void @EVP_PKEY_free(ptr noundef %30)
  %31 = load ptr, ptr %5, align 8, !tbaa !19
  call void @EVP_PKEY_CTX_free(ptr noundef %31)
  %32 = load i32, ptr %3, align 4, !tbaa !10
  call void @llvm.lifetime.end.p0(i64 8, ptr %5) #6
  call void @llvm.lifetime.end.p0(i64 8, ptr %4) #6
  call void @llvm.lifetime.end.p0(i64 4, ptr %3) #6
  ret i32 %32
}