; Function Attrs: nounwind uwtable
define internal fastcc range(i32 0, 2) i32 @do_ec_curve_failtest(ptr noundef %0) unnamed_addr #0 {
  %2 = load ptr, ptr @libctx, align 8, !tbaa !15
  %3 = tail call ptr (ptr, ptr, ptr, ...) @EVP_PKEY_Q_keygen(ptr noundef %2, ptr noundef null, ptr noundef nonnull @.str.5, ptr noundef %0) #5
  %4 = tail call i32 @test_ptr(ptr noundef nonnull @.str.3, i32 noundef 578, ptr noundef nonnull @.str.139, ptr noundef %3) #5
  %.not = icmp eq i32 %4, 0
  br i1 %.not, label %17, label %5

5:                                                ; preds = %1
  %6 = load ptr, ptr @libctx, align 8, !tbaa !15
  %7 = tail call ptr @EVP_PKEY_CTX_new_from_pkey(ptr noundef %6, ptr noundef %3, ptr noundef null) #5
  %8 = tail call i32 @test_ptr(ptr noundef nonnull @.str.3, i32 noundef 579, ptr noundef nonnull @.str.140, ptr noundef %7) #5
  %.not6 = icmp eq i32 %8, 0
  br i1 %.not6, label %17, label %9

9:                                                ; preds = %5
  %10 = tail call i32 @EVP_PKEY_encapsulate_init(ptr noundef %7, ptr noundef null) #5
  %11 = tail call i32 @test_int_eq(ptr noundef nonnull @.str.3, i32 noundef 580, ptr noundef nonnull @.str.65, ptr noundef nonnull @.str.76, i32 noundef %10, i32 noundef -2) #5
  %.not7 = icmp eq i32 %11, 0
  br i1 %.not7, label %17, label %12

12:                                               ; preds = %9
  %13 = tail call i32 @EVP_PKEY_decapsulate_init(ptr noundef %7, ptr noundef null) #5
  %14 = tail call i32 @test_int_eq(ptr noundef nonnull @.str.3, i32 noundef 581, ptr noundef nonnull @.str.72, ptr noundef nonnull @.str.76, i32 noundef %13, i32 noundef -2) #5
  %15 = icmp ne i32 %14, 0
  %16 = zext i1 %15 to i32
  br label %17

17:                                               ; preds = %12, %9, %5, %1
  %.0 = phi ptr [ %7, %12 ], [ %7, %9 ], [ %7, %5 ], [ null, %1 ]
  %18 = phi i32 [ %16, %12 ], [ 0, %9 ], [ 0, %5 ], [ 0, %1 ]
  tail call void @EVP_PKEY_free(ptr noundef %3) #5
  tail call void @EVP_PKEY_CTX_free(ptr noundef %.0) #5
  ret i32 %18
}